target datalayout = "e-m:e-p270:32:32-p271:32:32-p272:64:64-i64:64-i128:128-f80:128-n8:16:32:64-S128"
target triple = "x86_64-pc-linux-gnu"

@hf_mpeg_descr_nordig_lcd_v2_channel_list_id = internal global i32 0, align 4
@hf_mpeg_descr_nordig_lcd_v2_channel_list_name_length = internal global i32 0, align 4
@hf_mpeg_descr_nordig_lcd_v2_channel_list_name_encoding = internal global i32 0, align 4
@hf_mpeg_descr_nordig_lcd_v2_channel_list_name = internal global i32 0, align 4
@hf_mpeg_descr_nordig_lcd_v2_country_code = internal global i32 0, align 4
@hf_mpeg_descr_nordig_lcd_v2_descriptor_length = internal global i32 0, align 4
@hf_mpeg_descr_nordig_lcd_v2_service_id = internal global i32 0, align 4
@hf_mpeg_descr_nordig_lcd_v2_visible_service_flag = internal global i32 0, align 4
@hf_mpeg_descr_nordig_lcd_v2_reserved = internal global i32 0, align 4
@hf_mpeg_descr_nordig_lcd_v2_logical_channel_number = internal global i32 0, align 4
@ett_mpeg_descriptor_nordig_lcd_v2_channel_list_list = internal global i32 0, align 4
@ett_mpeg_descriptor_nordig_lcd_v2_service_list = internal global i32 0, align 4
@.str.768 = private unnamed_addr constant [15 x i8] c"Service 0x%04x\00", align 1
@.str.769 = private unnamed_addr constant [20 x i8] c"Channel list 0x%02x\00", align 1

; Function Attrs: null_pointer_is_valid sspstrong uwtable
define internal i32 @proto_mpeg_descriptor_dissect_nordig_lcd_v2_measure_ch_list(ptr noundef %0, i32 noundef %1, i32 noundef %2) #1 {
  %4 = alloca i32, align 4
  %5 = alloca ptr, align 8
  %6 = alloca i32, align 4
  %7 = alloca i32, align 4
  %8 = alloca i32, align 4
  %9 = alloca i32, align 4
  %10 = alloca i8, align 1
  %11 = alloca i8, align 1
  store ptr %0, ptr %5, align 8
  store i32 %1, ptr %6, align 4
  store i32 %2, ptr %7, align 4
  call void @llvm.lifetime.start.p0(i64 4, ptr %8) #4
  %12 = load i32, ptr %6, align 4
  store i32 %12, ptr %8, align 4
  %13 = load i32, ptr %7, align 4
  %14 = icmp ult i32 %13, 2
  br i1 %14, label %15, label %17

15:                                               ; preds = %3
  %16 = load i32, ptr %7, align 4
  store i32 %16, ptr %4, align 4
  store i32 1, ptr %9, align 4
  br label %57

17:                                               ; preds = %3
  call void @llvm.lifetime.start.p0(i64 1, ptr %10) #4
  %18 = load ptr, ptr %5, align 8
  %19 = load i32, ptr %8, align 4
  %20 = add i32 %19, 1
  %21 = call zeroext i8 @tvb_get_uint8(ptr noundef %18, i32 noundef %20)
  store i8 %21, ptr %10, align 1
  %22 = load i8, ptr %10, align 1
  %23 = zext i8 %22 to i32
  %24 = add i32 2, %23
  %25 = add i32 %24, 4
  %26 = load i32, ptr %8, align 4
  %27 = add i32 %26, %25
  store i32 %27, ptr %8, align 4
  %28 = load i32, ptr %8, align 4
  %29 = load i32, ptr %6, align 4
  %30 = load i32, ptr %7, align 4
  %31 = add i32 %29, %30
  %32 = icmp ugt i32 %28, %31
  br i1 %32, label %33, label %35

33:                                               ; preds = %17
  %34 = load i32, ptr %7, align 4
  store i32 %34, ptr %4, align 4
  store i32 1, ptr %9, align 4
  br label %56

35:                                               ; preds = %17
  call void @llvm.lifetime.start.p0(i64 1, ptr %11) #4
  %36 = load ptr, ptr %5, align 8
  %37 = load i32, ptr %8, align 4
  %38 = sub i32 %37, 1
  %39 = call zeroext i8 @tvb_get_uint8(ptr noundef %36, i32 noundef %38)
  store i8 %39, ptr %11, align 1
  %40 = load i8, ptr %11, align 1
  %41 = zext i8 %40 to i32
  %42 = load i32, ptr %8, align 4
  %43 = add i32 %42, %41
  store i32 %43, ptr %8, align 4
  %44 = load i32, ptr %8, align 4
  %45 = load i32, ptr %6, align 4
  %46 = load i32, ptr %7, align 4
  %47 = add i32 %45, %46
  %48 = icmp ugt i32 %44, %47
  br i1 %48, label %49, label %51

49:                                               ; preds = %35
  %50 = load i32, ptr %7, align 4
  store i32 %50, ptr %4, align 4
  store i32 1, ptr %9, align 4
  br label %55

51:                                               ; preds = %35
  %52 = load i32, ptr %8, align 4
  %53 = load i32, ptr %6, align 4
  %54 = sub i32 %52, %53
  store i32 %54, ptr %4, align 4
  store i32 1, ptr %9, align 4
  br label %55

55:                                               ; preds = %51, %49
  call void @llvm.lifetime.end.p0(i64 1, ptr %11) #4
  br label %56

56:                                               ; preds = %55, %33
  call void @llvm.lifetime.end.p0(i64 1, ptr %10) #4
  br label %57

57:                                               ; preds = %56, %15
  call void @llvm.lifetime.end.p0(i64 4, ptr %8) #4
  %58 = load i32, ptr %4, align 4
  ret i32 %58
}

; Function Attrs: null_pointer_is_valid sspstrong uwtable
define internal void @proto_mpeg_descriptor_dissect_nordig_lcd_v2(ptr noundef %0, i32 noundef %1, i32 noundef %2, ptr noundef %3) #1 {
  %5 = alloca ptr, align 8
  %6 = alloca i32, align 4
  %7 = alloca i32, align 4
  %8 = alloca ptr, align 8
  %9 = alloca i32, align 4
  %10 = alloca i32, align 4
  %11 = alloca ptr, align 8
  %12 = alloca i32, align 4
  %13 = alloca i8, align 1
  %14 = alloca i8, align 1
  %15 = alloca i8, align 1
  %16 = alloca i32, align 4
  %17 = alloca i32, align 4
  %18 = alloca i32, align 4
  %19 = alloca i16, align 2
  %20 = alloca ptr, align 8
  store ptr %0, ptr %5, align 8
  store i32 %1, ptr %6, align 4
  store i32 %2, ptr %7, align 4
  store ptr %3, ptr %8, align 8
  call void @llvm.lifetime.start.p0(i64 4, ptr %9) #4
  %21 = load i32, ptr %7, align 4
  store i32 %21, ptr %9, align 4
  call void @llvm.lifetime.start.p0(i64 4, ptr %10) #4
  %22 = load i32, ptr %6, align 4
  %23 = load i32, ptr %7, align 4
  %24 = add i32 %22, %23
  store i32 %24, ptr %10, align 4
  call void @llvm.lifetime.start.p0(i64 8, ptr %11) #4
  br label %25

25:                                               ; preds = %222, %4
  %26 = load i32, ptr %9, align 4
  %27 = icmp ugt i32 %26, 0
  br i1 %27, label %28, label %223

28:                                               ; preds = %25
  call void @llvm.lifetime.start.p0(i64 4, ptr %12) #4
  %29 = load ptr, ptr %5, align 8
  %30 = load i32, ptr %6, align 4
  %31 = load i32, ptr %10, align 4
  %32 = load i32, ptr %6, align 4
  %33 = sub i32 %31, %32
  %34 = call i32 @proto_mpeg_descriptor_dissect_nordig_lcd_v2_measure_ch_list(ptr noundef %29, i32 noundef %30, i32 noundef %33)
  store i32 %34, ptr %12, align 4
  call void @llvm.lifetime.start.p0(i64 1, ptr %13) #4
  call void @llvm.lifetime.start.p0(i64 1, ptr %14) #4
  call void @llvm.lifetime.start.p0(i64 1, ptr %15) #4
  %35 = load ptr, ptr %5, align 8
  %36 = load i32, ptr %6, align 4
  %37 = call zeroext i8 @tvb_get_uint8(ptr noundef %35, i32 noundef %36)
  store i8 %37, ptr %13, align 1
  %38 = load ptr, ptr %8, align 8
  %39 = load ptr, ptr %5, align 8
  %40 = load i32, ptr %6, align 4
  %41 = load i32, ptr %12, align 4
  %42 = load i32, ptr @ett_mpeg_descriptor_nordig_lcd_v2_channel_list_list, align 4
  %43 = load i8, ptr %13, align 1
  %44 = zext i8 %43 to i32
  %45 = call ptr (ptr, ptr, i32, i32, i32, ptr, ptr, ...) @proto_tree_add_subtree_format(ptr noundef %38, ptr noundef %39, i32 noundef %40, i32 noundef %41, i32 noundef %42, ptr noundef null, ptr noundef @.str.769, i32 noundef %44)
  store ptr %45, ptr %11, align 8
  %46 = load ptr, ptr %11, align 8
  %47 = load i32, ptr @hf_mpeg_descr_nordig_lcd_v2_channel_list_id, align 4
  %48 = load ptr, ptr %5, align 8
  %49 = load i32, ptr %6, align 4
  %50 = call ptr @proto_tree_add_item(ptr noundef %46, i32 noundef %47, ptr noundef %48, i32 noundef %49, i32 noundef 1, i32 noundef 0)
  %51 = load i32, ptr %6, align 4
  %52 = add i32 %51, 1
  store i32 %52, ptr %6, align 4
  %53 = load i32, ptr %9, align 4
  %54 = sub i32 %53, 1
  store i32 %54, ptr %9, align 4
  %55 = load i32, ptr %9, align 4
  %56 = icmp ult i32 %55, 1
  br i1 %56, label %57, label %58

57:                                               ; preds = %28
  store i32 1, ptr %16, align 4
  br label %220

58:                                               ; preds = %28
  %59 = load ptr, ptr %5, align 8
  %60 = load i32, ptr %6, align 4
  %61 = call zeroext i8 @tvb_get_uint8(ptr noundef %59, i32 noundef %60)
  store i8 %61, ptr %14, align 1
  %62 = load ptr, ptr %11, align 8
  %63 = load i32, ptr @hf_mpeg_descr_nordig_lcd_v2_channel_list_name_length, align 4
  %64 = load ptr, ptr %5, align 8
  %65 = load i32, ptr %6, align 4
  %66 = call ptr @proto_tree_add_item(ptr noundef %62, i32 noundef %63, ptr noundef %64, i32 noundef %65, i32 noundef 1, i32 noundef 0)
  %67 = load i32, ptr %6, align 4
  %68 = add i32 %67, 1
  store i32 %68, ptr %6, align 4
  %69 = load i32, ptr %9, align 4
  %70 = sub i32 %69, 1
  store i32 %70, ptr %9, align 4
  %71 = load i32, ptr %9, align 4
  %72 = load i8, ptr %14, align 1
  %73 = zext i8 %72 to i32
  %74 = icmp ult i32 %71, %73
  br i1 %74, label %75, label %77

75:                                               ; preds = %58
  %76 = load i32, ptr %9, align 4
  br label %80

77:                                               ; preds = %58
  %78 = load i8, ptr %14, align 1
  %79 = zext i8 %78 to i32
  br label %80

80:                                               ; preds = %77, %75
  %81 = phi i32 [ %76, %75 ], [ %79, %77 ]
  %82 = trunc i32 %81 to i8
  store i8 %82, ptr %14, align 1
  call void @llvm.lifetime.start.p0(i64 4, ptr %17) #4
  call void @llvm.lifetime.start.p0(i64 4, ptr %18) #4
  %83 = load ptr, ptr %5, align 8
  %84 = load i32, ptr %6, align 4
  %85 = load i8, ptr %14, align 1
  %86 = zext i8 %85 to i32
  %87 = call i32 @dvb_analyze_string_charset(ptr noundef %83, i32 noundef %84, i32 noundef %86, ptr noundef %17)
  store i32 %87, ptr %18, align 4
  %88 = load ptr, ptr %11, align 8
  %89 = load i32, ptr @hf_mpeg_descr_nordig_lcd_v2_channel_list_name_encoding, align 4
  %90 = load ptr, ptr %5, align 8
  %91 = load i32, ptr %6, align 4
  %92 = load i32, ptr %18, align 4
  %93 = load i32, ptr %17, align 4
  call void @dvb_add_chartbl(ptr noundef %88, i32 noundef %89, ptr noundef %90, i32 noundef %91, i32 noundef %92, i32 noundef %93)
  %94 = load ptr, ptr %11, align 8
  %95 = load i32, ptr @hf_mpeg_descr_nordig_lcd_v2_channel_list_name, align 4
  %96 = load ptr, ptr %5, align 8
  %97 = load i32, ptr %6, align 4
  %98 = load i32, ptr %18, align 4
  %99 = add i32 %97, %98
  %100 = load i8, ptr %14, align 1
  %101 = zext i8 %100 to i32
  %102 = load i32, ptr %18, align 4
  %103 = sub i32 %101, %102
  %104 = load i32, ptr %17, align 4
  %105 = call i32 @dvb_enc_to_item_enc(i32 noundef %104)
  %106 = call ptr @proto_tree_add_item(ptr noundef %94, i32 noundef %95, ptr noundef %96, i32 noundef %99, i32 noundef %103, i32 noundef %105)
  %107 = load i8, ptr %14, align 1
  %108 = zext i8 %107 to i32
  %109 = load i32, ptr %6, align 4
  %110 = add i32 %109, %108
  store i32 %110, ptr %6, align 4
  %111 = load i8, ptr %14, align 1
  %112 = zext i8 %111 to i32
  %113 = load i32, ptr %9, align 4
  %114 = sub i32 %113, %112
  store i32 %114, ptr %9, align 4
  %115 = load i32, ptr %9, align 4
  %116 = icmp ult i32 %115, 3
  br i1 %116, label %117, label %118

117:                                              ; preds = %80
  store i32 1, ptr %16, align 4
  br label %219

118:                                              ; preds = %80
  %119 = load ptr, ptr %11, align 8
  %120 = load i32, ptr @hf_mpeg_descr_nordig_lcd_v2_country_code, align 4
  %121 = load ptr, ptr %5, align 8
  %122 = load i32, ptr %6, align 4
  %123 = call ptr @proto_tree_add_item(ptr noundef %119, i32 noundef %120, ptr noundef %121, i32 noundef %122, i32 noundef 3, i32 noundef 0)
  %124 = load i32, ptr %6, align 4
  %125 = add i32 %124, 3
  store i32 %125, ptr %6, align 4
  %126 = load i32, ptr %9, align 4
  %127 = sub i32 %126, 3
  store i32 %127, ptr %9, align 4
  %128 = load i32, ptr %9, align 4
  %129 = icmp ult i32 %128, 1
  br i1 %129, label %130, label %131

130:                                              ; preds = %118
  store i32 1, ptr %16, align 4
  br label %219

131:                                              ; preds = %118
  %132 = load ptr, ptr %5, align 8
  %133 = load i32, ptr %6, align 4
  %134 = call zeroext i8 @tvb_get_uint8(ptr noundef %132, i32 noundef %133)
  store i8 %134, ptr %15, align 1
  %135 = load ptr, ptr %11, align 8
  %136 = load i32, ptr @hf_mpeg_descr_nordig_lcd_v2_descriptor_length, align 4
  %137 = load ptr, ptr %5, align 8
  %138 = load i32, ptr %6, align 4
  %139 = call ptr @proto_tree_add_item(ptr noundef %135, i32 noundef %136, ptr noundef %137, i32 noundef %138, i32 noundef 1, i32 noundef 0)
  %140 = load i32, ptr %6, align 4
  %141 = add i32 %140, 1
  store i32 %141, ptr %6, align 4
  %142 = load i32, ptr %9, align 4
  %143 = sub i32 %142, 1
  store i32 %143, ptr %9, align 4
  %144 = load i8, ptr %15, align 1
  %145 = zext i8 %144 to i32
  %146 = load i32, ptr %9, align 4
  %147 = icmp ult i32 %145, %146
  br i1 %147, label %148, label %151

148:                                              ; preds = %131
  %149 = load i8, ptr %15, align 1
  %150 = zext i8 %149 to i32
  br label %153

151:                                              ; preds = %131
  %152 = load i32, ptr %9, align 4
  br label %153

153:                                              ; preds = %151, %148
  %154 = phi i32 [ %150, %148 ], [ %152, %151 ]
  %155 = trunc i32 %154 to i8
  store i8 %155, ptr %15, align 1
  br label %156

156:                                              ; preds = %217, %153
  %157 = load i8, ptr %15, align 1
  %158 = zext i8 %157 to i32
  %159 = icmp sgt i32 %158, 0
  br i1 %159, label %160, label %218

160:                                              ; preds = %156
  call void @llvm.lifetime.start.p0(i64 2, ptr %19) #4
  call void @llvm.lifetime.start.p0(i64 8, ptr %20) #4
  %161 = load i32, ptr %9, align 4
  %162 = icmp ult i32 %161, 2
  br i1 %162, label %163, label %164

163:                                              ; preds = %160
  store i32 1, ptr %16, align 4
  br label %215

164:                                              ; preds = %160
  %165 = load ptr, ptr %5, align 8
  %166 = load i32, ptr %6, align 4
  %167 = call zeroext i16 @tvb_get_ntohs(ptr noundef %165, i32 noundef %166)
  store i16 %167, ptr %19, align 2
  %168 = load ptr, ptr %11, align 8
  %169 = load ptr, ptr %5, align 8
  %170 = load i32, ptr %6, align 4
  %171 = load i32, ptr @ett_mpeg_descriptor_nordig_lcd_v2_service_list, align 4
  %172 = load i16, ptr %19, align 2
  %173 = zext i16 %172 to i32
  %174 = call ptr (ptr, ptr, i32, i32, i32, ptr, ptr, ...) @proto_tree_add_subtree_format(ptr noundef %168, ptr noundef %169, i32 noundef %170, i32 noundef 4, i32 noundef %171, ptr noundef null, ptr noundef @.str.768, i32 noundef %173)
  store ptr %174, ptr %20, align 8
  %175 = load ptr, ptr %20, align 8
  %176 = load i32, ptr @hf_mpeg_descr_nordig_lcd_v2_service_id, align 4
  %177 = load ptr, ptr %5, align 8
  %178 = load i32, ptr %6, align 4
  %179 = call ptr @proto_tree_add_item(ptr noundef %175, i32 noundef %176, ptr noundef %177, i32 noundef %178, i32 noundef 2, i32 noundef 0)
  %180 = load i32, ptr %6, align 4
  %181 = add i32 %180, 2
  store i32 %181, ptr %6, align 4
  %182 = load i32, ptr %9, align 4
  %183 = sub i32 %182, 2
  store i32 %183, ptr %9, align 4
  %184 = load i8, ptr %15, align 1
  %185 = zext i8 %184 to i32
  %186 = sub i32 %185, 2
  %187 = trunc i32 %186 to i8
  store i8 %187, ptr %15, align 1
  %188 = load i32, ptr %9, align 4
  %189 = icmp ult i32 %188, 2
  br i1 %189, label %190, label %191

190:                                              ; preds = %164
  store i32 1, ptr %16, align 4
  br label %215

191:                                              ; preds = %164
  %192 = load ptr, ptr %20, align 8
  %193 = load i32, ptr @hf_mpeg_descr_nordig_lcd_v2_visible_service_flag, align 4
  %194 = load ptr, ptr %5, align 8
  %195 = load i32, ptr %6, align 4
  %196 = call ptr @proto_tree_add_item(ptr noundef %192, i32 noundef %193, ptr noundef %194, i32 noundef %195, i32 noundef 2, i32 noundef 0)
  %197 = load ptr, ptr %20, align 8
  %198 = load i32, ptr @hf_mpeg_descr_nordig_lcd_v2_reserved, align 4
  %199 = load ptr, ptr %5, align 8
  %200 = load i32, ptr %6, align 4
  %201 = call ptr @proto_tree_add_item(ptr noundef %197, i32 noundef %198, ptr noundef %199, i32 noundef %200, i32 noundef 2, i32 noundef 0)
  %202 = load ptr, ptr %20, align 8
  %203 = load i32, ptr @hf_mpeg_descr_nordig_lcd_v2_logical_channel_number, align 4
  %204 = load ptr, ptr %5, align 8
  %205 = load i32, ptr %6, align 4
  %206 = call ptr @proto_tree_add_item(ptr noundef %202, i32 noundef %203, ptr noundef %204, i32 noundef %205, i32 noundef 2, i32 noundef 0)
  %207 = load i32, ptr %6, align 4
  %208 = add i32 %207, 2
  store i32 %208, ptr %6, align 4
  %209 = load i32, ptr %9, align 4
  %210 = sub i32 %209, 2
  store i32 %210, ptr %9, align 4
  %211 = load i8, ptr %15, align 1
  %212 = zext i8 %211 to i32
  %213 = sub i32 %212, 2
  %214 = trunc i32 %213 to i8
  store i8 %214, ptr %15, align 1
  store i32 0, ptr %16, align 4
  br label %215

215:                                              ; preds = %191, %190, %163
  call void @llvm.lifetime.end.p0(i64 8, ptr %20) #4
  call void @llvm.lifetime.end.p0(i64 2, ptr %19) #4
  %216 = load i32, ptr %16, align 4
  switch i32 %216, label %219 [
    i32 0, label %217
  ]

217:                                              ; preds = %215
  br label %156, !llvm.loop !33

218:                                              ; preds = %156
  store i32 0, ptr %16, align 4
  br label %219

219:                                              ; preds = %218, %215, %130, %117
  call void @llvm.lifetime.end.p0(i64 4, ptr %18) #4
  call void @llvm.lifetime.end.p0(i64 4, ptr %17) #4
  br label %220

220:                                              ; preds = %219, %57
  call void @llvm.lifetime.end.p0(i64 1, ptr %15) #4
  call void @llvm.lifetime.end.p0(i64 1, ptr %14) #4
  call void @llvm.lifetime.end.p0(i64 1, ptr %13) #4
  call void @llvm.lifetime.end.p0(i64 4, ptr %12) #4
  %221 = load i32, ptr %16, align 4
  switch i32 %221, label %224 [
    i32 0, label %222
  ]

222:                                              ; preds = %220
  br label %25, !llvm.loop !34

223:                                              ; preds = %25
  store i32 0, ptr %16, align 4
  br label %224

224:                                              ; preds = %223, %220
  call void @llvm.lifetime.end.p0(i64 8, ptr %11) #4
  call void @llvm.lifetime.end.p0(i64 4, ptr %10) #4
  call void @llvm.lifetime.end.p0(i64 4, ptr %9) #4
  %225 = load i32, ptr %16, align 4
  switch i32 %225, label %227 [
    i32 0, label %226
    i32 1, label %226
  ]

226:                                              ; preds = %224, %224
  ret void

227:                                              ; preds = %224
  unreachable
}