; Function Attrs: null_pointer_is_valid sspstrong uwtable
define internal fastcc void @proto_mpeg_descriptor_dissect_nordig_lcd_v2(ptr noundef %0, i32 noundef %1, i32 noundef range(i32 1, 256) %2, ptr noundef %3) unnamed_addr #1 {
  %5 = alloca i32, align 4
  %6 = add i32 %2, %1
  br label %7

7:                                                ; preds = %4, %._crit_edge
  %.0139 = phi i32 [ %1, %4 ], [ %.3.lcssa, %._crit_edge ]
  %.096138 = phi i32 [ %2, %4 ], [ %.399.lcssa, %._crit_edge ]
  %8 = sub i32 %6, %.0139
  %9 = icmp ult i32 %8, 2
  br i1 %9, label %proto_mpeg_descriptor_dissect_nordig_lcd_v2_measure_ch_list.exit, label %10

10:                                               ; preds = %7
  %11 = add i32 %.0139, 1
  %12 = call zeroext i8 @tvb_get_uint8(ptr noundef %0, i32 noundef %11)
  %13 = zext i8 %12 to i32
  %14 = add i32 %.0139, 6
  %15 = add i32 %14, %13
  %16 = icmp ugt i32 %15, %6
  br i1 %16, label %proto_mpeg_descriptor_dissect_nordig_lcd_v2_measure_ch_list.exit, label %17

17:                                               ; preds = %10
  %18 = add i32 %15, -1
  %19 = call zeroext i8 @tvb_get_uint8(ptr noundef %0, i32 noundef %18)
  %20 = zext i8 %19 to i32
  %21 = add i32 %15, %20
  %22 = icmp ugt i32 %21, %6
  %23 = sub i32 %21, %.0139
  %.2.i = select i1 %22, i32 %8, i32 %23
  br label %proto_mpeg_descriptor_dissect_nordig_lcd_v2_measure_ch_list.exit

proto_mpeg_descriptor_dissect_nordig_lcd_v2_measure_ch_list.exit: ; preds = %7, %10, %17
  %.0.i = phi i32 [ %8, %7 ], [ %.2.i, %17 ], [ %8, %10 ]
  %24 = call zeroext i8 @tvb_get_uint8(ptr noundef %0, i32 noundef %.0139)
  %25 = load i32, ptr @ett_mpeg_descriptor_nordig_lcd_v2_channel_list_list, align 4
  %26 = zext i8 %24 to i32
  %27 = call ptr (ptr, ptr, i32, i32, i32, ptr, ptr, ...) @proto_tree_add_subtree_format(ptr noundef %3, ptr noundef %0, i32 noundef %.0139, i32 noundef %.0.i, i32 noundef %25, ptr noundef null, ptr noundef nonnull @.str.769, i32 noundef %26)
  %28 = load i32, ptr @hf_mpeg_descr_nordig_lcd_v2_channel_list_id, align 4
  %29 = call ptr @proto_tree_add_item(ptr noundef %27, i32 noundef %28, ptr noundef %0, i32 noundef %.0139, i32 noundef 1, i32 noundef 0)
  %30 = icmp eq i32 %.096138, 1
  br i1 %30, label %.thread120, label %31

31:                                               ; preds = %proto_mpeg_descriptor_dissect_nordig_lcd_v2_measure_ch_list.exit
  %32 = add i32 %.0139, 1
  %33 = call zeroext i8 @tvb_get_uint8(ptr noundef %0, i32 noundef %32)
  %34 = load i32, ptr @hf_mpeg_descr_nordig_lcd_v2_channel_list_name_length, align 4
  %35 = call ptr @proto_tree_add_item(ptr noundef %27, i32 noundef %34, ptr noundef %0, i32 noundef %32, i32 noundef 1, i32 noundef 0)
  %36 = add i32 %.0139, 2
  %37 = add i32 %.096138, -2
  %38 = zext i8 %33 to i32
  %39 = call i32 @llvm.umin.i32(i32 %37, i32 %38)
  call void @llvm.lifetime.start.p0(i64 4, ptr nonnull %5) #5
  %40 = call i32 @dvb_analyze_string_charset(ptr noundef %0, i32 noundef %36, i32 noundef %39, ptr noundef nonnull %5)
  %41 = load i32, ptr @hf_mpeg_descr_nordig_lcd_v2_channel_list_name_encoding, align 4
  %42 = load i32, ptr %5, align 4
  call void @dvb_add_chartbl(ptr noundef %27, i32 noundef %41, ptr noundef %0, i32 noundef %36, i32 noundef %40, i32 noundef %42)
  %43 = load i32, ptr @hf_mpeg_descr_nordig_lcd_v2_channel_list_name, align 4
  %44 = add i32 %40, %36
  %45 = sub i32 %39, %40
  %46 = load i32, ptr %5, align 4
  %47 = call i32 @dvb_enc_to_item_enc(i32 noundef %46)
  %48 = call ptr @proto_tree_add_item(ptr noundef %27, i32 noundef %43, ptr noundef %0, i32 noundef %44, i32 noundef %45, i32 noundef %47)
  %49 = add i32 %39, %36
  %50 = sub i32 %37, %39
  %51 = icmp ult i32 %50, 3
  br i1 %51, label %.thread125, label %52

52:                                               ; preds = %31
  %53 = load i32, ptr @hf_mpeg_descr_nordig_lcd_v2_country_code, align 4
  %54 = call ptr @proto_tree_add_item(ptr noundef %27, i32 noundef %53, ptr noundef %0, i32 noundef %49, i32 noundef 3, i32 noundef 0)
  %55 = icmp eq i32 %50, 3
  br i1 %55, label %.thread125, label %56

56:                                               ; preds = %52
  %57 = add i32 %49, 3
  %58 = call zeroext i8 @tvb_get_uint8(ptr noundef %0, i32 noundef %57)
  %59 = load i32, ptr @hf_mpeg_descr_nordig_lcd_v2_descriptor_length, align 4
  %60 = call ptr @proto_tree_add_item(ptr noundef %27, i32 noundef %59, ptr noundef %0, i32 noundef %57, i32 noundef 1, i32 noundef 0)
  %61 = add i32 %50, -4
  %62 = zext i8 %58 to i32
  %63 = call i32 @llvm.umin.i32(i32 %61, i32 %62)
  %.3131 = add i32 %49, 4
  %.not115132 = icmp eq i32 %63, 0
  br i1 %.not115132, label %._crit_edge, label %.lr.ph.preheader

.lr.ph.preheader:                                 ; preds = %56
  %64 = trunc nuw i32 %63 to i8
  br label %.lr.ph

.lr.ph:                                           ; preds = %.lr.ph.preheader, %75
  %.3136 = phi i32 [ %.3, %75 ], [ %.3131, %.lr.ph.preheader ]
  %.3.in135 = phi i32 [ %.3136, %75 ], [ %49, %.lr.ph.preheader ]
  %.399134 = phi i32 [ %83, %75 ], [ %61, %.lr.ph.preheader ]
  %.0101133 = phi i8 [ %84, %75 ], [ %64, %.lr.ph.preheader ]
  %65 = icmp ult i32 %.399134, 2
  br i1 %65, label %.thread125, label %66

66:                                               ; preds = %.lr.ph
  %67 = call zeroext i16 @tvb_get_ntohs(ptr noundef %0, i32 noundef %.3136)
  %68 = load i32, ptr @ett_mpeg_descriptor_nordig_lcd_v2_service_list, align 4
  %69 = zext i16 %67 to i32
  %70 = call ptr (ptr, ptr, i32, i32, i32, ptr, ptr, ...) @proto_tree_add_subtree_format(ptr noundef %27, ptr noundef %0, i32 noundef %.3136, i32 noundef 4, i32 noundef %68, ptr noundef null, ptr noundef nonnull @.str.768, i32 noundef %69)
  %71 = load i32, ptr @hf_mpeg_descr_nordig_lcd_v2_service_id, align 4
  %72 = call ptr @proto_tree_add_item(ptr noundef %70, i32 noundef %71, ptr noundef %0, i32 noundef %.3136, i32 noundef 2, i32 noundef 0)
  %73 = and i32 %.399134, -2
  %74 = icmp eq i32 %73, 2
  br i1 %74, label %.thread125, label %75

75:                                               ; preds = %66
  %76 = add i32 %.3.in135, 6
  %77 = load i32, ptr @hf_mpeg_descr_nordig_lcd_v2_visible_service_flag, align 4
  %78 = call ptr @proto_tree_add_item(ptr noundef %70, i32 noundef %77, ptr noundef %0, i32 noundef %76, i32 noundef 2, i32 noundef 0)
  %79 = load i32, ptr @hf_mpeg_descr_nordig_lcd_v2_reserved, align 4
  %80 = call ptr @proto_tree_add_item(ptr noundef %70, i32 noundef %79, ptr noundef %0, i32 noundef %76, i32 noundef 2, i32 noundef 0)
  %81 = load i32, ptr @hf_mpeg_descr_nordig_lcd_v2_logical_channel_number, align 4
  %82 = call ptr @proto_tree_add_item(ptr noundef %70, i32 noundef %81, ptr noundef %0, i32 noundef %76, i32 noundef 2, i32 noundef 0)
  %83 = add i32 %.399134, -4
  %84 = add i8 %.0101133, -4
  %.3 = add i32 %.3136, 4
  %.not115 = icmp eq i8 %84, 0
  br i1 %.not115, label %._crit_edge, label %.lr.ph, !llvm.loop !30

.thread125:                                       ; preds = %31, %52, %.lr.ph, %66
  call void @llvm.lifetime.end.p0(i64 4, ptr nonnull %5) #5
  br label %.thread120

._crit_edge:                                      ; preds = %75, %56
  %.399.lcssa = phi i32 [ %61, %56 ], [ %83, %75 ]
  %.3.lcssa = phi i32 [ %.3131, %56 ], [ %.3, %75 ]
  call void @llvm.lifetime.end.p0(i64 4, ptr nonnull %5) #5
  %.not = icmp eq i32 %.399.lcssa, 0
  br i1 %.not, label %.thread120, label %7, !llvm.loop !31

.thread120:                                       ; preds = %proto_mpeg_descriptor_dissect_nordig_lcd_v2_measure_ch_list.exit, %._crit_edge, %.thread125
  ret void
}